; Function Attrs: mustprogress uwtable
define hidden void @_ZN10macro_util16macro_candidates5resetEv(ptr noundef nonnull readonly align 8 captures(none) dereferenceable(64) %0) local_unnamed_addr #3 align 2 {
  %2 = load ptr, ptr %0, align 8, !tbaa !216
  %.not.i = icmp eq ptr %2, null
  br i1 %.not.i, label %_ZN6vectorIP9func_declLb0EjE5resetEv.exit, label %3

3:                                                ; preds = %1
  %4 = getelementptr inbounds i8, ptr %2, i64 -4
  store i32 0, ptr %4, align 4, !tbaa !85
  br label %_ZN6vectorIP9func_declLb0EjE5resetEv.exit

_ZN6vectorIP9func_declLb0EjE5resetEv.exit:        ; preds = %1, %3
  %5 = getelementptr inbounds nuw i8, ptr %0, i64 8
  %6 = getelementptr inbounds nuw i8, ptr %0, i64 16
  %7 = load ptr, ptr %6, align 8, !tbaa !151
  %8 = icmp eq ptr %7, null
  br i1 %8, label %_ZN15ref_vector_coreI4expr19ref_manager_wrapperIS0_11ast_managerEE5resetEv.exit, label %_ZNK6vectorIP4exprLb0EjE4sizeEv.exit.i

_ZNK6vectorIP4exprLb0EjE4sizeEv.exit.i:           ; preds = %_ZN6vectorIP9func_declLb0EjE5resetEv.exit
  %9 = getelementptr inbounds i8, ptr %7, i64 -4
  %10 = load i32, ptr %9, align 4, !tbaa !85
  %11 = zext i32 %10 to i64
  %12 = getelementptr inbounds nuw ptr, ptr %7, i64 %11
  %.not.i1 = icmp eq i32 %10, 0
  br i1 %.not.i1, label %_ZN15ref_vector_coreI4expr19ref_manager_wrapperIS0_11ast_managerEE13dec_range_refEPKPS0_S7_.exit.thread4.i, label %.lr.ph.i.i

.lr.ph.i.i:                                       ; preds = %_ZNK6vectorIP4exprLb0EjE4sizeEv.exit.i, %_ZN15ref_vector_coreI4expr19ref_manager_wrapperIS0_11ast_managerEE7dec_refEPS0_.exit.i.i
  %.06.i.i = phi ptr [ %21, %_ZN15ref_vector_coreI4expr19ref_manager_wrapperIS0_11ast_managerEE7dec_refEPS0_.exit.i.i ], [ %7, %_ZNK6vectorIP4exprLb0EjE4sizeEv.exit.i ]
  %13 = load ptr, ptr %.06.i.i, align 8, !tbaa !73
  %14 = load ptr, ptr %5, align 8, !tbaa !167
  %.not.i.i.i.i.i = icmp eq ptr %13, null
  br i1 %.not.i.i.i.i.i, label %_ZN15ref_vector_coreI4expr19ref_manager_wrapperIS0_11ast_managerEE7dec_refEPS0_.exit.i.i, label %15

15:                                               ; preds = %.lr.ph.i.i
  %16 = getelementptr inbounds nuw i8, ptr %13, i64 8
  %17 = load i32, ptr %16, align 4, !tbaa !74
  %18 = add i32 %17, -1
  store i32 %18, ptr %16, align 4, !tbaa !74
  %19 = icmp eq i32 %18, 0
  br i1 %19, label %20, label %_ZN15ref_vector_coreI4expr19ref_manager_wrapperIS0_11ast_managerEE7dec_refEPS0_.exit.i.i

20:                                               ; preds = %15
  tail call void @_ZN11ast_manager11delete_nodeEP3ast(ptr noundef nonnull align 8 dereferenceable(976) %14, ptr noundef nonnull %13)
  br label %_ZN15ref_vector_coreI4expr19ref_manager_wrapperIS0_11ast_managerEE7dec_refEPS0_.exit.i.i

_ZN15ref_vector_coreI4expr19ref_manager_wrapperIS0_11ast_managerEE7dec_refEPS0_.exit.i.i: ; preds = %20, %15, %.lr.ph.i.i
  %21 = getelementptr inbounds nuw i8, ptr %.06.i.i, i64 8
  %22 = icmp ult ptr %21, %12
  br i1 %22, label %.lr.ph.i.i, label %_ZN15ref_vector_coreI4expr19ref_manager_wrapperIS0_11ast_managerEE13dec_range_refEPKPS0_S7_.exit.i, !llvm.loop !219

_ZN15ref_vector_coreI4expr19ref_manager_wrapperIS0_11ast_managerEE13dec_range_refEPKPS0_S7_.exit.i: ; preds = %_ZN15ref_vector_coreI4expr19ref_manager_wrapperIS0_11ast_managerEE7dec_refEPS0_.exit.i.i
  %.pre.i = load ptr, ptr %6, align 8, !tbaa !151
  %.not.i.i = icmp eq ptr %.pre.i, null
  br i1 %.not.i.i, label %_ZN15ref_vector_coreI4expr19ref_manager_wrapperIS0_11ast_managerEE5resetEv.exit, label %_ZN15ref_vector_coreI4expr19ref_manager_wrapperIS0_11ast_managerEE13dec_range_refEPKPS0_S7_.exit.thread4.i

_ZN15ref_vector_coreI4expr19ref_manager_wrapperIS0_11ast_managerEE13dec_range_refEPKPS0_S7_.exit.thread4.i: ; preds = %_ZN15ref_vector_coreI4expr19ref_manager_wrapperIS0_11ast_managerEE13dec_range_refEPKPS0_S7_.exit.i, %_ZNK6vectorIP4exprLb0EjE4sizeEv.exit.i
  %23 = phi ptr [ %.pre.i, %_ZN15ref_vector_coreI4expr19ref_manager_wrapperIS0_11ast_managerEE13dec_range_refEPKPS0_S7_.exit.i ], [ %7, %_ZNK6vectorIP4exprLb0EjE4sizeEv.exit.i ]
  %24 = getelementptr inbounds i8, ptr %23, i64 -4
  store i32 0, ptr %24, align 4, !tbaa !85
  br label %_ZN15ref_vector_coreI4expr19ref_manager_wrapperIS0_11ast_managerEE5resetEv.exit

_ZN15ref_vector_coreI4expr19ref_manager_wrapperIS0_11ast_managerEE5resetEv.exit: ; preds = %_ZN6vectorIP9func_declLb0EjE5resetEv.exit, %_ZN15ref_vector_coreI4expr19ref_manager_wrapperIS0_11ast_managerEE13dec_range_refEPKPS0_S7_.exit.i, %_ZN15ref_vector_coreI4expr19ref_manager_wrapperIS0_11ast_managerEE13dec_range_refEPKPS0_S7_.exit.thread4.i
  %25 = getelementptr inbounds nuw i8, ptr %0, i64 24
  %26 = getelementptr inbounds nuw i8, ptr %0, i64 32
  %27 = load ptr, ptr %26, align 8, !tbaa !151
  %28 = icmp eq ptr %27, null
  br i1 %28, label %_ZN15ref_vector_coreI4expr19ref_manager_wrapperIS0_11ast_managerEE5resetEv.exit12, label %_ZNK6vectorIP4exprLb0EjE4sizeEv.exit.i2

_ZNK6vectorIP4exprLb0EjE4sizeEv.exit.i2:          ; preds = %_ZN15ref_vector_coreI4expr19ref_manager_wrapperIS0_11ast_managerEE5resetEv.exit
  %29 = getelementptr inbounds i8, ptr %27, i64 -4
  %30 = load i32, ptr %29, align 4, !tbaa !85
  %31 = zext i32 %30 to i64
  %32 = getelementptr inbounds nuw ptr, ptr %27, i64 %31
  %.not.i3 = icmp eq i32 %30, 0
  br i1 %.not.i3, label %_ZN15ref_vector_coreI4expr19ref_manager_wrapperIS0_11ast_managerEE13dec_range_refEPKPS0_S7_.exit.thread4.i11, label %.lr.ph.i.i4

.lr.ph.i.i4:                                      ; preds = %_ZNK6vectorIP4exprLb0EjE4sizeEv.exit.i2, %_ZN15ref_vector_coreI4expr19ref_manager_wrapperIS0_11ast_managerEE7dec_refEPS0_.exit.i.i7
  %.06.i.i5 = phi ptr [ %41, %_ZN15ref_vector_coreI4expr19ref_manager_wrapperIS0_11ast_managerEE7dec_refEPS0_.exit.i.i7 ], [ %27, %_ZNK6vectorIP4exprLb0EjE4sizeEv.exit.i2 ]
  %33 = load ptr, ptr %.06.i.i5, align 8, !tbaa !73
  %34 = load ptr, ptr %25, align 8, !tbaa !167
  %.not.i.i.i.i.i6 = icmp eq ptr %33, null
  br i1 %.not.i.i.i.i.i6, label %_ZN15ref_vector_coreI4expr19ref_manager_wrapperIS0_11ast_managerEE7dec_refEPS0_.exit.i.i7, label %35

35:                                               ; preds = %.lr.ph.i.i4
  %36 = getelementptr inbounds nuw i8, ptr %33, i64 8
  %37 = load i32, ptr %36, align 4, !tbaa !74
  %38 = add i32 %37, -1
  store i32 %38, ptr %36, align 4, !tbaa !74
  %39 = icmp eq i32 %38, 0
  br i1 %39, label %40, label %_ZN15ref_vector_coreI4expr19ref_manager_wrapperIS0_11ast_managerEE7dec_refEPS0_.exit.i.i7

40:                                               ; preds = %35
  tail call void @_ZN11ast_manager11delete_nodeEP3ast(ptr noundef nonnull align 8 dereferenceable(976) %34, ptr noundef nonnull %33)
  br label %_ZN15ref_vector_coreI4expr19ref_manager_wrapperIS0_11ast_managerEE7dec_refEPS0_.exit.i.i7

_ZN15ref_vector_coreI4expr19ref_manager_wrapperIS0_11ast_managerEE7dec_refEPS0_.exit.i.i7: ; preds = %40, %35, %.lr.ph.i.i4
  %41 = getelementptr inbounds nuw i8, ptr %.06.i.i5, i64 8
  %42 = icmp ult ptr %41, %32
  br i1 %42, label %.lr.ph.i.i4, label %_ZN15ref_vector_coreI4expr19ref_manager_wrapperIS0_11ast_managerEE13dec_range_refEPKPS0_S7_.exit.i8, !llvm.loop !219

_ZN15ref_vector_coreI4expr19ref_manager_wrapperIS0_11ast_managerEE13dec_range_refEPKPS0_S7_.exit.i8: ; preds = %_ZN15ref_vector_coreI4expr19ref_manager_wrapperIS0_11ast_managerEE7dec_refEPS0_.exit.i.i7
  %.pre.i9 = load ptr, ptr %26, align 8, !tbaa !151
  %.not.i.i10 = icmp eq ptr %.pre.i9, null
  br i1 %.not.i.i10, label %_ZN15ref_vector_coreI4expr19ref_manager_wrapperIS0_11ast_managerEE5resetEv.exit12, label %_ZN15ref_vector_coreI4expr19ref_manager_wrapperIS0_11ast_managerEE13dec_range_refEPKPS0_S7_.exit.thread4.i11

_ZN15ref_vector_coreI4expr19ref_manager_wrapperIS0_11ast_managerEE13dec_range_refEPKPS0_S7_.exit.thread4.i11: ; preds = %_ZN15ref_vector_coreI4expr19ref_manager_wrapperIS0_11ast_managerEE13dec_range_refEPKPS0_S7_.exit.i8, %_ZNK6vectorIP4exprLb0EjE4sizeEv.exit.i2
  %43 = phi ptr [ %.pre.i9, %_ZN15ref_vector_coreI4expr19ref_manager_wrapperIS0_11ast_managerEE13dec_range_refEPKPS0_S7_.exit.i8 ], [ %27, %_ZNK6vectorIP4exprLb0EjE4sizeEv.exit.i2 ]
  %44 = getelementptr inbounds i8, ptr %43, i64 -4
  store i32 0, ptr %44, align 4, !tbaa !85
  br label %_ZN15ref_vector_coreI4expr19ref_manager_wrapperIS0_11ast_managerEE5resetEv.exit12

_ZN15ref_vector_coreI4expr19ref_manager_wrapperIS0_11ast_managerEE5resetEv.exit12: ; preds = %_ZN15ref_vector_coreI4expr19ref_manager_wrapperIS0_11ast_managerEE5resetEv.exit, %_ZN15ref_vector_coreI4expr19ref_manager_wrapperIS0_11ast_managerEE13dec_range_refEPKPS0_S7_.exit.i8, %_ZN15ref_vector_coreI4expr19ref_manager_wrapperIS0_11ast_managerEE13dec_range_refEPKPS0_S7_.exit.thread4.i11
  %45 = getelementptr inbounds nuw i8, ptr %0, i64 40
  %46 = load ptr, ptr %45, align 8, !tbaa !220
  %.not.i13 = icmp eq ptr %46, null
  br i1 %.not.i13, label %_ZN6vectorIbLb0EjE5resetEv.exit, label %47

47:                                               ; preds = %_ZN15ref_vector_coreI4expr19ref_manager_wrapperIS0_11ast_managerEE5resetEv.exit12
  %48 = getelementptr inbounds i8, ptr %46, i64 -4
  store i32 0, ptr %48, align 4, !tbaa !85
  br label %_ZN6vectorIbLb0EjE5resetEv.exit

_ZN6vectorIbLb0EjE5resetEv.exit:                  ; preds = %_ZN15ref_vector_coreI4expr19ref_manager_wrapperIS0_11ast_managerEE5resetEv.exit12, %47
  %49 = getelementptr inbounds nuw i8, ptr %0, i64 48
  %50 = load ptr, ptr %49, align 8, !tbaa !220
  %.not.i14 = icmp eq ptr %50, null
  br i1 %.not.i14, label %_ZN6vectorIbLb0EjE5resetEv.exit15, label %51

51:                                               ; preds = %_ZN6vectorIbLb0EjE5resetEv.exit
  %52 = getelementptr inbounds i8, ptr %50, i64 -4
  store i32 0, ptr %52, align 4, !tbaa !85
  br label %_ZN6vectorIbLb0EjE5resetEv.exit15

_ZN6vectorIbLb0EjE5resetEv.exit15:                ; preds = %_ZN6vectorIbLb0EjE5resetEv.exit, %51
  %53 = getelementptr inbounds nuw i8, ptr %0, i64 56
  %54 = load ptr, ptr %53, align 8, !tbaa !220
  %.not.i16 = icmp eq ptr %54, null
  br i1 %.not.i16, label %_ZN6vectorIbLb0EjE5resetEv.exit17, label %55

55:                                               ; preds = %_ZN6vectorIbLb0EjE5resetEv.exit15
  %56 = getelementptr inbounds i8, ptr %54, i64 -4
  store i32 0, ptr %56, align 4, !tbaa !85
  br label %_ZN6vectorIbLb0EjE5resetEv.exit17

_ZN6vectorIbLb0EjE5resetEv.exit17:                ; preds = %_ZN6vectorIbLb0EjE5resetEv.exit15, %55
  ret void
}